target datalayout = "e-m:e-p270:32:32-p271:32:32-p272:64:64-i64:64-i128:128-f80:128-n8:16:32:64-S128"
target triple = "x86_64-pc-linux-gnu"

%struct._MAD = type { i8, i8, i8, i8, i16, i8, i8, i64, i16, i16, i32 }

@hf_opa_MulticastForwardingTable = internal global i32 0, align 4
@hf_opa_MulticastForwardingTable_PortMask = internal global i32 0, align 4
@ett_multicastforwardingtable = internal global i32 0, align 4
@ett_multicastforwardingtable_block = internal global i32 0, align 4
@.str.2079 = private unnamed_addr constant [8 x i8] c"Unknown\00", align 1
@.str.2329 = private unnamed_addr constant [6 x i8] c"%3u: \00", align 1
@.str.2339 = private unnamed_addr constant [46 x i8] c"Multicast Forwarding Table Block %u, Ports %s\00", align 1

; Function Attrs: null_pointer_is_valid sspstrong uwtable
define internal i32 @parse_MulticastForwardingTable(ptr noundef %0, ptr noundef %1, ptr noundef %2, ptr noundef %3) #0 {
  %5 = alloca i32, align 4
  %6 = alloca ptr, align 8
  %7 = alloca ptr, align 8
  %8 = alloca ptr, align 8
  %9 = alloca ptr, align 8
  %10 = alloca i32, align 4
  %11 = alloca ptr, align 8
  %12 = alloca ptr, align 8
  %13 = alloca ptr, align 8
  %14 = alloca ptr, align 8
  %15 = alloca i32, align 4
  %16 = alloca i32, align 4
  %17 = alloca i32, align 4
  %18 = alloca i32, align 4
  %19 = alloca i32, align 4
  %20 = alloca ptr, align 8
  %21 = alloca i32, align 4
  store ptr %0, ptr %6, align 8
  store ptr %1, ptr %7, align 8
  store ptr %2, ptr %8, align 8
  store ptr %3, ptr %9, align 8
  call void @llvm.lifetime.start.p0(i64 4, ptr %10) #7
  %22 = load ptr, ptr %8, align 8
  %23 = load i32, ptr %22, align 4
  store i32 %23, ptr %10, align 4
  call void @llvm.lifetime.start.p0(i64 8, ptr %11) #7
  call void @llvm.lifetime.start.p0(i64 8, ptr %12) #7
  call void @llvm.lifetime.start.p0(i64 8, ptr %13) #7
  call void @llvm.lifetime.start.p0(i64 8, ptr %14) #7
  call void @llvm.lifetime.start.p0(i64 4, ptr %15) #7
  call void @llvm.lifetime.start.p0(i64 4, ptr %16) #7
  call void @llvm.lifetime.start.p0(i64 4, ptr %17) #7
  call void @llvm.lifetime.start.p0(i64 4, ptr %18) #7
  call void @llvm.lifetime.start.p0(i64 4, ptr %19) #7
  call void @llvm.lifetime.start.p0(i64 8, ptr %20) #7
  %24 = load ptr, ptr %6, align 8
  %25 = icmp ne ptr %24, null
  br i1 %25, label %26, label %38

26:                                               ; preds = %4
  %27 = load ptr, ptr %9, align 8
  %28 = getelementptr inbounds nuw %struct._MAD, ptr %27, i32 0, i32 3
  %29 = load i8, ptr %28, align 1
  %30 = zext i8 %29 to i32
  %31 = icmp eq i32 %30, 1
  br i1 %31, label %38, label %32

32:                                               ; preds = %26
  %33 = load ptr, ptr %9, align 8
  %34 = getelementptr inbounds nuw %struct._MAD, ptr %33, i32 0, i32 3
  %35 = load i8, ptr %34, align 1
  %36 = zext i8 %35 to i32
  %37 = icmp eq i32 %36, 18
  br i1 %37, label %38, label %41

38:                                               ; preds = %32, %26, %4
  %39 = load ptr, ptr %8, align 8
  %40 = load i32, ptr %39, align 4
  store i32 %40, ptr %5, align 4
  store i32 1, ptr %21, align 4
  br label %118

41:                                               ; preds = %32
  %42 = load ptr, ptr %9, align 8
  %43 = getelementptr inbounds nuw %struct._MAD, ptr %42, i32 0, i32 1
  %44 = load i8, ptr %43, align 1
  %45 = zext i8 %44 to i32
  %46 = icmp eq i32 %45, 3
  br i1 %46, label %47, label %53

47:                                               ; preds = %41
  store i32 1, ptr %18, align 4
  store i32 0, ptr %19, align 4
  %48 = load ptr, ptr %7, align 8
  %49 = load i32, ptr %10, align 4
  %50 = sub i32 %49, 4
  %51 = call i32 @tvb_get_ntohl(ptr noundef %48, i32 noundef %50)
  %52 = and i32 %51, 2097151
  store i32 %52, ptr %17, align 4
  br label %68

53:                                               ; preds = %41
  %54 = load ptr, ptr %9, align 8
  %55 = getelementptr inbounds nuw %struct._MAD, ptr %54, i32 0, i32 10
  %56 = load i32, ptr %55, align 4
  %57 = and i32 %56, -16777216
  %58 = lshr i32 %57, 24
  store i32 %58, ptr %18, align 4
  %59 = load ptr, ptr %9, align 8
  %60 = getelementptr inbounds nuw %struct._MAD, ptr %59, i32 0, i32 10
  %61 = load i32, ptr %60, align 4
  %62 = and i32 %61, 12582912
  %63 = lshr i32 %62, 22
  store i32 %63, ptr %19, align 4
  %64 = load ptr, ptr %9, align 8
  %65 = getelementptr inbounds nuw %struct._MAD, ptr %64, i32 0, i32 10
  %66 = load i32, ptr %65, align 4
  %67 = and i32 %66, 1048575
  store i32 %67, ptr %17, align 4
  br label %68

68:                                               ; preds = %53, %47
  %69 = load i32, ptr %19, align 4
  %70 = call ptr @val_to_str_const(i32 noundef %69, ptr noundef @GroupTablePosition, ptr noundef @.str.2079)
  store ptr %70, ptr %20, align 8
  %71 = load ptr, ptr %6, align 8
  %72 = load i32, ptr @hf_opa_MulticastForwardingTable, align 4
  %73 = load ptr, ptr %7, align 8
  %74 = load i32, ptr %10, align 4
  %75 = load i32, ptr %18, align 4
  %76 = mul i32 64, %75
  %77 = call ptr @proto_tree_add_item(ptr noundef %71, i32 noundef %72, ptr noundef %73, i32 noundef %74, i32 noundef %76, i32 noundef 0)
  store ptr %77, ptr %11, align 8
  %78 = load ptr, ptr %11, align 8
  %79 = load i32, ptr @ett_multicastforwardingtable, align 4
  %80 = call ptr @proto_item_add_subtree(ptr noundef %78, i32 noundef %79)
  store ptr %80, ptr %12, align 8
  %81 = load i32, ptr %17, align 4
  store i32 %81, ptr %15, align 4
  br label %82

82:                                               ; preds = %113, %68
  %83 = load i32, ptr %15, align 4
  %84 = load i32, ptr %17, align 4
  %85 = load i32, ptr %18, align 4
  %86 = add i32 %84, %85
  %87 = icmp ult i32 %83, %86
  br i1 %87, label %88, label %116

88:                                               ; preds = %82
  %89 = load ptr, ptr %12, align 8
  %90 = load ptr, ptr %7, align 8
  %91 = load i32, ptr %10, align 4
  %92 = load i32, ptr @ett_multicastforwardingtable_block, align 4
  %93 = load i32, ptr %15, align 4
  %94 = load ptr, ptr %20, align 8
  %95 = call ptr (ptr, ptr, i32, i32, i32, ptr, ptr, ...) @proto_tree_add_subtree_format(ptr noundef %89, ptr noundef %90, i32 noundef %91, i32 noundef 64, i32 noundef %92, ptr noundef null, ptr noundef @.str.2339, i32 noundef %93, ptr noundef %94)
  store ptr %95, ptr %14, align 8
  store i32 0, ptr %16, align 4
  br label %96

96:                                               ; preds = %109, %88
  %97 = load i32, ptr %16, align 4
  %98 = icmp ult i32 %97, 8
  br i1 %98, label %99, label %112

99:                                               ; preds = %96
  %100 = load ptr, ptr %14, align 8
  %101 = load i32, ptr @hf_opa_MulticastForwardingTable_PortMask, align 4
  %102 = load ptr, ptr %7, align 8
  %103 = load i32, ptr %10, align 4
  %104 = call ptr @proto_tree_add_item(ptr noundef %100, i32 noundef %101, ptr noundef %102, i32 noundef %103, i32 noundef 8, i32 noundef 0)
  store ptr %104, ptr %13, align 8
  %105 = load i32, ptr %10, align 4
  %106 = add i32 %105, 8
  store i32 %106, ptr %10, align 4
  %107 = load ptr, ptr %13, align 8
  %108 = load i32, ptr %16, align 4
  call void (ptr, ptr, ...) @proto_item_prepend_text(ptr noundef %107, ptr noundef @.str.2329, i32 noundef %108)
  br label %109

109:                                              ; preds = %99
  %110 = load i32, ptr %16, align 4
  %111 = add i32 %110, 1
  store i32 %111, ptr %16, align 4
  br label %96, !llvm.loop !23

112:                                              ; preds = %96
  br label %113

113:                                              ; preds = %112
  %114 = load i32, ptr %15, align 4
  %115 = add i32 %114, 1
  store i32 %115, ptr %15, align 4
  br label %82, !llvm.loop !24

116:                                              ; preds = %82
  %117 = load i32, ptr %10, align 4
  store i32 %117, ptr %5, align 4
  store i32 1, ptr %21, align 4
  br label %118

118:                                              ; preds = %116, %38
  call void @llvm.lifetime.end.p0(i64 8, ptr %20) #7
  call void @llvm.lifetime.end.p0(i64 4, ptr %19) #7
  call void @llvm.lifetime.end.p0(i64 4, ptr %18) #7
  call void @llvm.lifetime.end.p0(i64 4, ptr %17) #7
  call void @llvm.lifetime.end.p0(i64 4, ptr %16) #7
  call void @llvm.lifetime.end.p0(i64 4, ptr %15) #7
  call void @llvm.lifetime.end.p0(i64 8, ptr %14) #7
  call void @llvm.lifetime.end.p0(i64 8, ptr %13) #7
  call void @llvm.lifetime.end.p0(i64 8, ptr %12) #7
  call void @llvm.lifetime.end.p0(i64 8, ptr %11) #7
  call void @llvm.lifetime.end.p0(i64 4, ptr %10) #7
  %119 = load i32, ptr %5, align 4
  ret i32 %119
}