; Function Attrs: null_pointer_is_valid sspstrong uwtable
define internal fastcc i32 @parse_MulticastForwardingTable(ptr noundef %0, ptr noundef %1, i32 %.0.val, ptr noundef readonly captures(none) %2) unnamed_addr #0 {
  %.not = icmp eq ptr %0, null
  br i1 %.not, label %.loopexit, label %4

4:                                                ; preds = %3
  %5 = getelementptr inbounds nuw i8, ptr %2, i64 3
  %6 = load i8, ptr %5, align 1
  switch i8 %6, label %7 [
    i8 1, label %.loopexit
    i8 18, label %.loopexit
  ]

7:                                                ; preds = %4
  %8 = getelementptr inbounds nuw i8, ptr %2, i64 1
  %9 = load i8, ptr %8, align 1
  %10 = icmp eq i8 %9, 3
  br i1 %10, label %11, label %15

11:                                               ; preds = %7
  %12 = add i32 %.0.val, -4
  %13 = tail call i32 @tvb_get_ntohl(ptr noundef %1, i32 noundef %12)
  %14 = and i32 %13, 2097151
  br label %22

15:                                               ; preds = %7
  %16 = getelementptr inbounds nuw i8, ptr %2, i64 20
  %17 = load i32, ptr %16, align 4
  %18 = lshr i32 %17, 24
  %19 = lshr i32 %17, 22
  %20 = and i32 %19, 3
  %21 = and i32 %17, 1048575
  br label %22

22:                                               ; preds = %15, %11
  %.038 = phi i32 [ %14, %11 ], [ %21, %15 ]
  %.037 = phi i32 [ 1, %11 ], [ %18, %15 ]
  %.036 = phi i32 [ 0, %11 ], [ %20, %15 ]
  %23 = tail call ptr @val_to_str_const(i32 noundef %.036, ptr noundef nonnull @GroupTablePosition, ptr noundef nonnull @.str.2079)
  %24 = load i32, ptr @hf_opa_MulticastForwardingTable, align 4
  %25 = shl nuw nsw i32 %.037, 6
  %26 = tail call ptr @proto_tree_add_item(ptr noundef nonnull %0, i32 noundef %24, ptr noundef %1, i32 noundef %.0.val, i32 noundef %25, i32 noundef 0)
  %27 = load i32, ptr @ett_multicastforwardingtable, align 4
  %28 = tail call ptr @proto_item_add_subtree(ptr noundef %26, i32 noundef %27)
  %29 = add nuw nsw i32 %.037, %.038
  %.not5 = icmp eq i32 %.037, 0
  br i1 %.not5, label %.loopexit, label %.lr.ph

.lr.ph:                                           ; preds = %22, %37
  %.0404 = phi i32 [ %38, %37 ], [ %.038, %22 ]
  %.0413 = phi i32 [ %35, %37 ], [ %.0.val, %22 ]
  %30 = load i32, ptr @ett_multicastforwardingtable_block, align 4
  %31 = tail call ptr (ptr, ptr, i32, i32, i32, ptr, ptr, ...) @proto_tree_add_subtree_format(ptr noundef %28, ptr noundef %1, i32 noundef %.0413, i32 noundef 64, i32 noundef %30, ptr noundef null, ptr noundef nonnull @.str.2339, i32 noundef %.0404, ptr noundef %23)
  br label %32

32:                                               ; preds = %.lr.ph, %32
  %.0392 = phi i32 [ 0, %.lr.ph ], [ %36, %32 ]
  %.11 = phi i32 [ %.0413, %.lr.ph ], [ %35, %32 ]
  %33 = load i32, ptr @hf_opa_MulticastForwardingTable_PortMask, align 4
  %34 = tail call ptr @proto_tree_add_item(ptr noundef %31, i32 noundef %33, ptr noundef %1, i32 noundef %.11, i32 noundef 8, i32 noundef 0)
  %35 = add i32 %.11, 8
  tail call void (ptr, ptr, ...) @proto_item_prepend_text(ptr noundef %34, ptr noundef nonnull @.str.2329, i32 noundef %.0392)
  %36 = add nuw nsw i32 %.0392, 1
  %exitcond.not = icmp eq i32 %36, 8
  br i1 %exitcond.not, label %37, label %32, !llvm.loop !32

37:                                               ; preds = %32
  %38 = add nuw nsw i32 %.0404, 1
  %39 = icmp samesign ult i32 %38, %29
  br i1 %39, label %.lr.ph, label %.loopexit, !llvm.loop !33

.loopexit:                                        ; preds = %37, %22, %3, %4, %4
  %.0 = phi i32 [ %.0.val, %4 ], [ %.0.val, %4 ], [ %.0.val, %3 ], [ %.0.val, %22 ], [ %35, %37 ]
  ret i32 %.0
}